; ModuleID = '58/1234.c'
source_filename = "58/1234.c"
target datalayout = "e-m:e-p270:32:32-p271:32:32-p272:64:64-i64:64-f80:128-n8:16:32:64-S128"
target triple = "x86_64-pc-linux-gnu"

@.str = private unnamed_addr constant [3 x i8] c"%d\00", align 1
@.str.1 = private unnamed_addr constant [3 x i8] c"0\0A\00", align 1
@.str.2 = private unnamed_addr constant [3 x i8] c"1\0A\00", align 1

; Function Attrs: noinline nounwind uwtable
define dso_local i32 @main() #0 {
  %1 = alloca i32, align 4
  %2 = alloca i32, align 4
  %3 = alloca i32, align 4
  %4 = alloca i32, align 4
  %5 = alloca i32, align 4
  %6 = alloca i8*, align 8
  %7 = alloca [81 x i8], align 16
  store i32 0, i32* %1, align 4
  %8 = call i32 (i8*, ...) @__isoc99_scanf(i8* getelementptr inbounds ([3 x i8], [3 x i8]* @.str, i64 0, i64 0), i32* %2)
  %9 = call i32 @getchar()
  store i32 0, i32* %3, align 4
  br label %10

10:                                               ; preds = %103, %0
  %11 = load i32, i32* %3, align 4
  %12 = load i32, i32* %2, align 4
  %13 = icmp slt i32 %11, %12
  br i1 %13, label %14, label %106

14:                                               ; preds = %10
  %15 = bitcast [81 x i8]* %7 to i8*
  call void @llvm.memset.p0i8.i64(i8* align 16 %15, i8 0, i64 81, i1 false)
  %16 = getelementptr inbounds [81 x i8], [81 x i8]* %7, i64 0, i64 0
  %17 = call i32 (i8*, ...) bitcast (i32 (...)* @gets to i32 (i8*, ...)*)(i8* %16)
  %18 = getelementptr inbounds [81 x i8], [81 x i8]* %7, i64 0, i64 0
  store i8* %18, i8** %6, align 8
  store i32 0, i32* %5, align 4
  %19 = load i8*, i8** %6, align 8
  %20 = load i8, i8* %19, align 1
  %21 = sext i8 %20 to i32
  %22 = icmp eq i32 %21, 95
  br i1 %22, label %43, label %23

23:                                               ; preds = %14
  %24 = load i8*, i8** %6, align 8
  %25 = load i8, i8* %24, align 1
  %26 = sext i8 %25 to i32
  %27 = icmp sge i32 %26, 65
  br i1 %27, label %28, label %33

28:                                               ; preds = %23
  %29 = load i8*, i8** %6, align 8
  %30 = load i8, i8* %29, align 1
  %31 = sext i8 %30 to i32
  %32 = icmp sle i32 %31, 90
  br i1 %32, label %43, label %33

33:                                               ; preds = %28, %23
  %34 = load i8*, i8** %6, align 8
  %35 = load i8, i8* %34, align 1
  %36 = sext i8 %35 to i32
  %37 = icmp sge i32 %36, 97
  br i1 %37, label %38, label %100

38:                                               ; preds = %33
  %39 = load i8*, i8** %6, align 8
  %40 = load i8, i8* %39, align 1
  %41 = sext i8 %40 to i32
  %42 = icmp sle i32 %41, 122
  br i1 %42, label %43, label %100

43:                                               ; preds = %38, %28, %14
  store i32 0, i32* %4, align 4
  br label %44

44:                                               ; preds = %91, %43
  %45 = load i32, i32* %4, align 4
  %46 = sext i32 %45 to i64
  %47 = getelementptr inbounds [81 x i8], [81 x i8]* %7, i64 0, i64 0
  %48 = call i64 @strlen(i8* %47) #4
  %49 = icmp ult i64 %46, %48
  br i1 %49, label %50, label %94

50:                                               ; preds = %44
  %51 = load i8*, i8** %6, align 8
  %52 = load i8, i8* %51, align 1
  %53 = sext i8 %52 to i32
  %54 = icmp sge i32 %53, 65
  br i1 %54, label %55, label %60

55:                                               ; preds = %50
  %56 = load i8*, i8** %6, align 8
  %57 = load i8, i8* %56, align 1
  %58 = sext i8 %57 to i32
  %59 = icmp sle i32 %58, 90
  br i1 %59, label %85, label %60

60:                                               ; preds = %55, %50
  %61 = load i8*, i8** %6, align 8
  %62 = load i8, i8* %61, align 1
  %63 = sext i8 %62 to i32
  %64 = icmp sge i32 %63, 97
  br i1 %64, label %65, label %70

65:                                               ; preds = %60
  %66 = load i8*, i8** %6, align 8
  %67 = load i8, i8* %66, align 1
  %68 = sext i8 %67 to i32
  %69 = icmp sle i32 %68, 122
  br i1 %69, label %85, label %70

70:                                               ; preds = %65, %60
  %71 = load i8*, i8** %6, align 8
  %72 = load i8, i8* %71, align 1
  %73 = sext i8 %72 to i32
  %74 = icmp sge i32 %73, 48
  br i1 %74, label %75, label %80

75:                                               ; preds = %70
  %76 = load i8*, i8** %6, align 8
  %77 = load i8, i8* %76, align 1
  %78 = sext i8 %77 to i32
  %79 = icmp sle i32 %78, 57
  br i1 %79, label %85, label %80

80:                                               ; preds = %75, %70
  %81 = load i8*, i8** %6, align 8
  %82 = load i8, i8* %81, align 1
  %83 = sext i8 %82 to i32
  %84 = icmp eq i32 %83, 95
  br i1 %84, label %85, label %88

85:                                               ; preds = %80, %75, %65, %55
  %86 = load i8*, i8** %6, align 8
  %87 = getelementptr inbounds i8, i8* %86, i32 1
  store i8* %87, i8** %6, align 8
  br label %90

88:                                               ; preds = %80
  %89 = call i32 (i8*, ...) @printf(i8* getelementptr inbounds ([3 x i8], [3 x i8]* @.str.1, i64 0, i64 0))
  store i32 1, i32* %5, align 4
  br label %94

90:                                               ; preds = %85
  br label %91

91:                                               ; preds = %90
  %92 = load i32, i32* %4, align 4
  %93 = add nsw i32 %92, 1
  store i32 %93, i32* %4, align 4
  br label %44

94:                                               ; preds = %88, %44
  %95 = load i32, i32* %5, align 4
  %96 = icmp eq i32 %95, 0
  br i1 %96, label %97, label %99

97:                                               ; preds = %94
  %98 = call i32 (i8*, ...) @printf(i8* getelementptr inbounds ([3 x i8], [3 x i8]* @.str.2, i64 0, i64 0))
  br label %99

99:                                               ; preds = %97, %94
  br label %102

100:                                              ; preds = %38, %33
  %101 = call i32 (i8*, ...) @printf(i8* getelementptr inbounds ([3 x i8], [3 x i8]* @.str.1, i64 0, i64 0))
  br label %102

102:                                              ; preds = %100, %99
  br label %103

103:                                              ; preds = %102
  %104 = load i32, i32* %3, align 4
  %105 = add nsw i32 %104, 1
  store i32 %105, i32* %3, align 4
  br label %10

106:                                              ; preds = %10
  ret i32 0
}

declare dso_local i32 @__isoc99_scanf(i8*, ...) #1

declare dso_local i32 @getchar() #1

; Function Attrs: argmemonly nounwind willreturn
declare void @llvm.memset.p0i8.i64(i8* nocapture writeonly, i8, i64, i1 immarg) #2

declare dso_local i32 @gets(...) #1

; Function Attrs: nounwind readonly
declare dso_local i64 @strlen(i8*) #3

declare dso_local i32 @printf(i8*, ...) #1


!llvm.module.flags = !{!0}
!llvm.ident = !{!1}

!0 = !{i32 1, !"wchar_size", i32 4}
!1 = !{!"clang version 10.0.0-4ubuntu1 "}
